target datalayout = "e-m:e-p270:32:32-p271:32:32-p272:64:64-i64:64-i128:128-f80:128-n8:16:32:64-S128"
target triple = "x86_64-pc-linux-gnu"

%struct.pg_regex_t = type { i32, i64, i64, i32, ptr, i32, ptr, ptr }
%struct.guts = type { i32, i32, i64, i64, ptr, %struct.cnfa, i32, %struct.colormap, ptr, ptr, i32 }
%struct.cnfa = type { i32, i32, i32, i32, i32, [2 x i16], [2 x i16], ptr, ptr, ptr, i32, i32 }
%struct.colormap = type { i32, ptr, i64, i64, i16, ptr, ptr, [14 x i32], i32, ptr, ptr, i32, i32, i32, [10 x %struct.colordesc] }
%struct.colordesc = type { i32, i32, i16, ptr, i32, i32 }
%struct.subre = type { i8, i8, i8, i32, i32, i32, i16, i16, ptr, ptr, ptr, ptr, %struct.cnfa, ptr }

; Function Attrs: nounwind uwtable
define internal void @freecnfa(ptr noundef %0) #0 {
  %2 = alloca ptr, align 8
  store ptr %0, ptr %2, align 8
  %3 = load ptr, ptr %2, align 8
  %4 = getelementptr inbounds nuw %struct.cnfa, ptr %3, i32 0, i32 7
  %5 = load ptr, ptr %4, align 8
  call void @pfree(ptr noundef %5)
  %6 = load ptr, ptr %2, align 8
  %7 = getelementptr inbounds nuw %struct.cnfa, ptr %6, i32 0, i32 8
  %8 = load ptr, ptr %7, align 8
  call void @pfree(ptr noundef %8)
  %9 = load ptr, ptr %2, align 8
  %10 = getelementptr inbounds nuw %struct.cnfa, ptr %9, i32 0, i32 9
  %11 = load ptr, ptr %10, align 8
  call void @pfree(ptr noundef %11)
  %12 = load ptr, ptr %2, align 8
  %13 = getelementptr inbounds nuw %struct.cnfa, ptr %12, i32 0, i32 0
  store i32 0, ptr %13, align 8
  ret void
}

; Function Attrs: nounwind uwtable
define internal void @freelacons(ptr noundef %0, i32 noundef %1) #0 {
  %3 = alloca ptr, align 8
  %4 = alloca i32, align 4
  %5 = alloca ptr, align 8
  %6 = alloca i32, align 4
  store ptr %0, ptr %3, align 8
  store i32 %1, ptr %4, align 4
  call void @llvm.lifetime.start.p0(i64 8, ptr %5) #12
  call void @llvm.lifetime.start.p0(i64 4, ptr %6) #12
  %7 = load ptr, ptr %3, align 8
  %8 = getelementptr inbounds %struct.subre, ptr %7, i64 1
  store ptr %8, ptr %5, align 8
  %9 = load i32, ptr %4, align 4
  %10 = sub i32 %9, 1
  store i32 %10, ptr %6, align 4
  br label %11

11:                                               ; preds = %24, %2
  %12 = load i32, ptr %6, align 4
  %13 = icmp sgt i32 %12, 0
  br i1 %13, label %14, label %29

14:                                               ; preds = %11
  %15 = load ptr, ptr %5, align 8
  %16 = getelementptr inbounds nuw %struct.subre, ptr %15, i32 0, i32 12
  %17 = getelementptr inbounds nuw %struct.cnfa, ptr %16, i32 0, i32 0
  %18 = load i32, ptr %17, align 8
  %19 = icmp eq i32 %18, 0
  br i1 %19, label %23, label %20

20:                                               ; preds = %14
  %21 = load ptr, ptr %5, align 8
  %22 = getelementptr inbounds nuw %struct.subre, ptr %21, i32 0, i32 12
  call void @freecnfa(ptr noundef %22)
  br label %23

23:                                               ; preds = %20, %14
  br label %24

24:                                               ; preds = %23
  %25 = load ptr, ptr %5, align 8
  %26 = getelementptr inbounds nuw %struct.subre, ptr %25, i32 1
  store ptr %26, ptr %5, align 8
  %27 = load i32, ptr %6, align 4
  %28 = add i32 %27, -1
  store i32 %28, ptr %6, align 4
  br label %11, !llvm.loop !29

29:                                               ; preds = %11
  %30 = load ptr, ptr %3, align 8
  call void @pfree(ptr noundef %30)
  call void @llvm.lifetime.end.p0(i64 4, ptr %6) #12
  call void @llvm.lifetime.end.p0(i64 8, ptr %5) #12
  ret void
}

; Function Attrs: nounwind uwtable
define internal void @freecm(ptr noundef %0) #0 {
  %2 = alloca ptr, align 8
  store ptr %0, ptr %2, align 8
  %3 = load ptr, ptr %2, align 8
  %4 = getelementptr inbounds nuw %struct.colormap, ptr %3, i32 0, i32 0
  store i32 0, ptr %4, align 8
  %5 = load ptr, ptr %2, align 8
  %6 = getelementptr inbounds nuw %struct.colormap, ptr %5, i32 0, i32 5
  %7 = load ptr, ptr %6, align 8
  %8 = load ptr, ptr %2, align 8
  %9 = getelementptr inbounds nuw %struct.colormap, ptr %8, i32 0, i32 14
  %10 = getelementptr inbounds [10 x %struct.colordesc], ptr %9, i64 0, i64 0
  %11 = icmp ne ptr %7, %10
  br i1 %11, label %12, label %16

12:                                               ; preds = %1
  %13 = load ptr, ptr %2, align 8
  %14 = getelementptr inbounds nuw %struct.colormap, ptr %13, i32 0, i32 5
  %15 = load ptr, ptr %14, align 8
  call void @pfree(ptr noundef %15)
  br label %16

16:                                               ; preds = %12, %1
  %17 = load ptr, ptr %2, align 8
  %18 = getelementptr inbounds nuw %struct.colormap, ptr %17, i32 0, i32 6
  %19 = load ptr, ptr %18, align 8
  %20 = icmp ne ptr %19, null
  br i1 %20, label %21, label %25

21:                                               ; preds = %16
  %22 = load ptr, ptr %2, align 8
  %23 = getelementptr inbounds nuw %struct.colormap, ptr %22, i32 0, i32 6
  %24 = load ptr, ptr %23, align 8
  call void @pfree(ptr noundef %24)
  br label %25

25:                                               ; preds = %21, %16
  %26 = load ptr, ptr %2, align 8
  %27 = getelementptr inbounds nuw %struct.colormap, ptr %26, i32 0, i32 9
  %28 = load ptr, ptr %27, align 8
  %29 = icmp ne ptr %28, null
  br i1 %29, label %30, label %34

30:                                               ; preds = %25
  %31 = load ptr, ptr %2, align 8
  %32 = getelementptr inbounds nuw %struct.colormap, ptr %31, i32 0, i32 9
  %33 = load ptr, ptr %32, align 8
  call void @pfree(ptr noundef %33)
  br label %34

34:                                               ; preds = %30, %25
  %35 = load ptr, ptr %2, align 8
  %36 = getelementptr inbounds nuw %struct.colormap, ptr %35, i32 0, i32 10
  %37 = load ptr, ptr %36, align 8
  %38 = icmp ne ptr %37, null
  br i1 %38, label %39, label %43

39:                                               ; preds = %34
  %40 = load ptr, ptr %2, align 8
  %41 = getelementptr inbounds nuw %struct.colormap, ptr %40, i32 0, i32 10
  %42 = load ptr, ptr %41, align 8
  call void @pfree(ptr noundef %42)
  br label %43

43:                                               ; preds = %39, %34
  ret void
}

; Function Attrs: nounwind uwtable
define internal void @rfree(ptr noundef %0) #0 {
  %2 = alloca ptr, align 8
  %3 = alloca ptr, align 8
  %4 = alloca i32, align 4
  store ptr %0, ptr %2, align 8
  call void @llvm.lifetime.start.p0(i64 8, ptr %3) #12
  %5 = load ptr, ptr %2, align 8
  %6 = icmp eq ptr %5, null
  br i1 %6, label %12, label %7

7:                                                ; preds = %1
  %8 = load ptr, ptr %2, align 8
  %9 = getelementptr inbounds nuw %struct.pg_regex_t, ptr %8, i32 0, i32 0
  %10 = load i32, ptr %9, align 8
  %11 = icmp ne i32 %10, 65239
  br i1 %11, label %12, label %13

12:                                               ; preds = %7, %1
  store i32 1, ptr %4, align 4
  br label %62

13:                                               ; preds = %7
  %14 = load ptr, ptr %2, align 8
  %15 = getelementptr inbounds nuw %struct.pg_regex_t, ptr %14, i32 0, i32 0
  store i32 0, ptr %15, align 8
  %16 = load ptr, ptr %2, align 8
  %17 = getelementptr inbounds nuw %struct.pg_regex_t, ptr %16, i32 0, i32 6
  %18 = load ptr, ptr %17, align 8
  store ptr %18, ptr %3, align 8
  %19 = load ptr, ptr %2, align 8
  %20 = getelementptr inbounds nuw %struct.pg_regex_t, ptr %19, i32 0, i32 6
  store ptr null, ptr %20, align 8
  %21 = load ptr, ptr %2, align 8
  %22 = getelementptr inbounds nuw %struct.pg_regex_t, ptr %21, i32 0, i32 7
  store ptr null, ptr %22, align 8
  %23 = load ptr, ptr %3, align 8
  %24 = icmp ne ptr %23, null
  br i1 %24, label %25, label %61

25:                                               ; preds = %13
  %26 = load ptr, ptr %3, align 8
  %27 = getelementptr inbounds nuw %struct.guts, ptr %26, i32 0, i32 0
  store i32 0, ptr %27, align 8
  %28 = load ptr, ptr %3, align 8
  %29 = getelementptr inbounds nuw %struct.guts, ptr %28, i32 0, i32 7
  call void @freecm(ptr noundef %29)
  %30 = load ptr, ptr %3, align 8
  %31 = getelementptr inbounds nuw %struct.guts, ptr %30, i32 0, i32 4
  %32 = load ptr, ptr %31, align 8
  %33 = icmp ne ptr %32, null
  br i1 %33, label %34, label %38

34:                                               ; preds = %25
  %35 = load ptr, ptr %3, align 8
  %36 = getelementptr inbounds nuw %struct.guts, ptr %35, i32 0, i32 4
  %37 = load ptr, ptr %36, align 8
  call void @freesubre(ptr noundef null, ptr noundef %37)
  br label %38

38:                                               ; preds = %34, %25
  %39 = load ptr, ptr %3, align 8
  %40 = getelementptr inbounds nuw %struct.guts, ptr %39, i32 0, i32 9
  %41 = load ptr, ptr %40, align 8
  %42 = icmp ne ptr %41, null
  br i1 %42, label %43, label %50

43:                                               ; preds = %38
  %44 = load ptr, ptr %3, align 8
  %45 = getelementptr inbounds nuw %struct.guts, ptr %44, i32 0, i32 9
  %46 = load ptr, ptr %45, align 8
  %47 = load ptr, ptr %3, align 8
  %48 = getelementptr inbounds nuw %struct.guts, ptr %47, i32 0, i32 10
  %49 = load i32, ptr %48, align 8
  call void @freelacons(ptr noundef %46, i32 noundef %49)
  br label %50

50:                                               ; preds = %43, %38
  %51 = load ptr, ptr %3, align 8
  %52 = getelementptr inbounds nuw %struct.guts, ptr %51, i32 0, i32 5
  %53 = getelementptr inbounds nuw %struct.cnfa, ptr %52, i32 0, i32 0
  %54 = load i32, ptr %53, align 8
  %55 = icmp eq i32 %54, 0
  br i1 %55, label %59, label %56

56:                                               ; preds = %50
  %57 = load ptr, ptr %3, align 8
  %58 = getelementptr inbounds nuw %struct.guts, ptr %57, i32 0, i32 5
  call void @freecnfa(ptr noundef %58)
  br label %59

59:                                               ; preds = %56, %50
  %60 = load ptr, ptr %3, align 8
  call void @pfree(ptr noundef %60)
  br label %61

61:                                               ; preds = %59, %13
  store i32 0, ptr %4, align 4
  br label %62

62:                                               ; preds = %61, %12
  call void @llvm.lifetime.end.p0(i64 8, ptr %3) #12
  %63 = load i32, ptr %4, align 4
  switch i32 %63, label %65 [
    i32 0, label %64
    i32 1, label %64
  ]

64:                                               ; preds = %62, %62
  ret void

65:                                               ; preds = %62
  unreachable
}