; Function Attrs: nounwind uwtable
define internal void @rfree(ptr noundef captures(address_is_null) %0) #0 {
  %2 = icmp eq ptr %0, null
  br i1 %2, label %60, label %3

3:                                                ; preds = %1
  %4 = load i32, ptr %0, align 8
  %.not = icmp eq i32 %4, 65239
  br i1 %.not, label %5, label %60

5:                                                ; preds = %3
  store i32 0, ptr %0, align 8
  %6 = getelementptr inbounds nuw i8, ptr %0, i64 48
  %7 = load ptr, ptr %6, align 8
  %.not20 = icmp eq ptr %7, null
  tail call void @llvm.memset.p0.i64(ptr noundef nonnull align 8 dereferenceable(16) %6, i8 0, i64 16, i1 false)
  br i1 %.not20, label %60, label %8

8:                                                ; preds = %5
  store i32 0, ptr %7, align 8
  %9 = getelementptr inbounds nuw i8, ptr %7, i64 104
  store i32 0, ptr %9, align 8
  %10 = getelementptr inbounds nuw i8, ptr %7, i64 144
  %11 = load ptr, ptr %10, align 8
  %12 = getelementptr inbounds nuw i8, ptr %7, i64 256
  %.not.i = icmp eq ptr %11, %12
  br i1 %.not.i, label %14, label %13

13:                                               ; preds = %8
  tail call void @pfree(ptr noundef %11) #20
  br label %14

14:                                               ; preds = %13, %8
  %15 = getelementptr inbounds nuw i8, ptr %7, i64 152
  %16 = load ptr, ptr %15, align 8
  %.not13.i = icmp eq ptr %16, null
  br i1 %.not13.i, label %18, label %17

17:                                               ; preds = %14
  tail call void @pfree(ptr noundef nonnull %16) #20
  br label %18

18:                                               ; preds = %17, %14
  %19 = getelementptr inbounds nuw i8, ptr %7, i64 224
  %20 = load ptr, ptr %19, align 8
  %.not14.i = icmp eq ptr %20, null
  br i1 %.not14.i, label %22, label %21

21:                                               ; preds = %18
  tail call void @pfree(ptr noundef nonnull %20) #20
  br label %22

22:                                               ; preds = %21, %18
  %23 = getelementptr inbounds nuw i8, ptr %7, i64 232
  %24 = load ptr, ptr %23, align 8
  %.not15.i = icmp eq ptr %24, null
  br i1 %.not15.i, label %freecm.exit, label %25

25:                                               ; preds = %22
  tail call void @pfree(ptr noundef nonnull %24) #20
  br label %freecm.exit

freecm.exit:                                      ; preds = %22, %25
  %26 = getelementptr inbounds nuw i8, ptr %7, i64 24
  %27 = load ptr, ptr %26, align 8
  %.not21 = icmp eq ptr %27, null
  br i1 %.not21, label %29, label %28

28:                                               ; preds = %freecm.exit
  tail call fastcc void @freesubre(ptr noundef null, ptr noundef nonnull %27)
  br label %29

29:                                               ; preds = %28, %freecm.exit
  %30 = getelementptr inbounds nuw i8, ptr %7, i64 584
  %31 = load ptr, ptr %30, align 8
  %.not22 = icmp eq ptr %31, null
  br i1 %.not22, label %48, label %32

32:                                               ; preds = %29
  %33 = getelementptr inbounds nuw i8, ptr %7, i64 592
  %34 = load i32, ptr %33, align 8
  %.09.i = add i32 %34, -1
  %35 = icmp sgt i32 %.09.i, 0
  br i1 %35, label %.lr.ph.i, label %freelacons.exit

.lr.ph.i:                                         ; preds = %32, %46
  %.012.i = phi i32 [ %.0.i, %46 ], [ %.09.i, %32 ]
  %.pn10.i = phi ptr [ %.0711.i, %46 ], [ %31, %32 ]
  %.0711.i = getelementptr inbounds nuw i8, ptr %.pn10.i, i64 128
  %36 = getelementptr inbounds nuw i8, ptr %.pn10.i, i64 184
  %37 = load i32, ptr %36, align 8
  %38 = icmp eq i32 %37, 0
  br i1 %38, label %46, label %39

39:                                               ; preds = %.lr.ph.i
  %40 = getelementptr inbounds nuw i8, ptr %.pn10.i, i64 216
  %41 = load ptr, ptr %40, align 8
  tail call void @pfree(ptr noundef %41) #20
  %42 = getelementptr inbounds nuw i8, ptr %.pn10.i, i64 224
  %43 = load ptr, ptr %42, align 8
  tail call void @pfree(ptr noundef %43) #20
  %44 = getelementptr inbounds nuw i8, ptr %.pn10.i, i64 232
  %45 = load ptr, ptr %44, align 8
  tail call void @pfree(ptr noundef %45) #20
  store i32 0, ptr %36, align 8
  br label %46

46:                                               ; preds = %39, %.lr.ph.i
  %.0.i = add nsw i32 %.012.i, -1
  %47 = icmp sgt i32 %.012.i, 1
  br i1 %47, label %.lr.ph.i, label %freelacons.exit, !llvm.loop !12

freelacons.exit:                                  ; preds = %46, %32
  tail call void @pfree(ptr noundef nonnull %31) #20
  br label %48

48:                                               ; preds = %freelacons.exit, %29
  %49 = getelementptr inbounds nuw i8, ptr %7, i64 32
  %50 = load i32, ptr %49, align 8
  %51 = icmp eq i32 %50, 0
  br i1 %51, label %59, label %52

52:                                               ; preds = %48
  %53 = getelementptr inbounds nuw i8, ptr %7, i64 64
  %54 = load ptr, ptr %53, align 8
  tail call void @pfree(ptr noundef %54) #20
  %55 = getelementptr inbounds nuw i8, ptr %7, i64 72
  %56 = load ptr, ptr %55, align 8
  tail call void @pfree(ptr noundef %56) #20
  %57 = getelementptr inbounds nuw i8, ptr %7, i64 80
  %58 = load ptr, ptr %57, align 8
  tail call void @pfree(ptr noundef %58) #20
  store i32 0, ptr %49, align 8
  br label %59

59:                                               ; preds = %52, %48
  tail call void @pfree(ptr noundef nonnull %7) #20
  br label %60

60:                                               ; preds = %5, %59, %1, %3
  ret void
}